; Function Attrs: mustprogress nofree norecurse nosync nounwind willreturn memory(read, inaccessiblemem: none) uwtable
define dso_local { ptr, i64 } @_ZNK4llvm2gi7PatFrag7getNameEv(ptr nocapture noundef nonnull readonly align 8 dereferenceable(288) %0) local_unnamed_addr #7 align 2 {
  %2 = load ptr, ptr %0, align 8
  %3 = load ptr, ptr %2, align 8
  %4 = getelementptr inbounds nuw i8, ptr %3, i64 24
  %.sroa.0.0.copyload.i.i = load ptr, ptr %4, align 8
  %.sroa.2.0..sroa_idx.i.i = getelementptr inbounds i8, ptr %3, i64 32
  %.sroa.2.0.copyload.i.i = load i64, ptr %.sroa.2.0..sroa_idx.i.i, align 8
  %.fca.0.insert.i.i = insertvalue { ptr, i64 } poison, ptr %.sroa.0.0.copyload.i.i, 0
  %.fca.1.insert.i.i = insertvalue { ptr, i64 } %.fca.0.insert.i.i, i64 %.sroa.2.0.copyload.i.i, 1
  ret { ptr, i64 } %.fca.1.insert.i.i
}